target datalayout = "e-m:e-p270:32:32-p271:32:32-p272:64:64-i64:64-i128:128-f80:128-n8:16:32:64-S128"
target triple = "x86_64-pc-linux-gnu"

%struct.jit_State = type { %struct.GCtrace, ptr, ptr, ptr, ptr, ptr, ptr, i32, i32, i32, i8, i8, %struct.IRType1, i8, %struct.FoldState, ptr, i32, i32, i32, i32, i32, i32, i32, [1 x i32], [5 x %union.TValue], [3 x %union.TValue], ptr, i32, i32, i32, i32, ptr, ptr, i32, i32, i8, ptr, i32, i32, i16, [101 x i16], [258 x i32], [15 x i32], [16 x ptr], [64 x %struct.HotPenalty], i32, [16 x %struct.BPropEntry], i32, %struct.ScEvEntry, ptr, i32, i32, i32, ptr, i32, i32, ptr, ptr, ptr, i64, i64, %union.TValue, ptr, i32, i32 }
%struct.GCtrace = type { %struct.GCRef, i8, i8, i16, i32, i32, %struct.GCRef, ptr, i32, i32, ptr, ptr, %struct.GCRef, %struct.MRef, i32, i32, ptr, i32, i16, i16, i16, i16, i16, i16, i16, i8, i8, i8, i8 }
%struct.GCRef = type { i64 }
%struct.MRef = type { i64 }
%struct.IRType1 = type { i8 }
%struct.FoldState = type { %union.IRIns, [2 x %union.IRIns], [2 x %union.IRIns] }
%union.IRIns = type { %struct.GCRef }
%struct.HotPenalty = type { %struct.MRef, i16, i16 }
%struct.BPropEntry = type { i16, i16, i32 }
%struct.ScEvEntry = type { %struct.MRef, i16, i16, i16, i16, %struct.IRType1, i8 }
%union.TValue = type { i64 }
%struct.anon.0 = type { i32, %struct.IRType1, i8, i8, i8 }
%struct.anon = type { i16, i16, i16, i16 }

; Function Attrs: nounwind uwtable
define internal void @narrow_bpc_set(ptr noundef %0, i16 noundef zeroext %1, i16 noundef zeroext %2, i32 noundef %3) #0 {
  %5 = alloca ptr, align 8
  %6 = alloca i16, align 2
  %7 = alloca i16, align 2
  %8 = alloca i32, align 4
  %9 = alloca i32, align 4
  %10 = alloca ptr, align 8
  store ptr %0, ptr %5, align 8, !tbaa !4
  store i16 %1, ptr %6, align 2, !tbaa !44
  store i16 %2, ptr %7, align 2, !tbaa !44
  store i32 %3, ptr %8, align 4, !tbaa !38
  call void @llvm.lifetime.start.p0(i64 4, ptr %9) #5
  %11 = load ptr, ptr %5, align 8, !tbaa !4
  %12 = getelementptr inbounds nuw %struct.jit_State, ptr %11, i32 0, i32 47
  %13 = load i32, ptr %12, align 4, !tbaa !58
  store i32 %13, ptr %9, align 4, !tbaa !38
  call void @llvm.lifetime.start.p0(i64 8, ptr %10) #5
  %14 = load ptr, ptr %5, align 8, !tbaa !4
  %15 = getelementptr inbounds nuw %struct.jit_State, ptr %14, i32 0, i32 46
  %16 = load i32, ptr %9, align 4, !tbaa !38
  %17 = zext i32 %16 to i64
  %18 = getelementptr inbounds nuw [16 x %struct.BPropEntry], ptr %15, i64 0, i64 %17
  store ptr %18, ptr %10, align 8, !tbaa !47
  %19 = load i32, ptr %9, align 4, !tbaa !38
  %20 = add i32 %19, 1
  %21 = and i32 %20, 15
  %22 = load ptr, ptr %5, align 8, !tbaa !4
  %23 = getelementptr inbounds nuw %struct.jit_State, ptr %22, i32 0, i32 47
  store i32 %21, ptr %23, align 4, !tbaa !58
  %24 = load i16, ptr %6, align 2, !tbaa !44
  %25 = load ptr, ptr %10, align 8, !tbaa !47
  %26 = getelementptr inbounds nuw %struct.BPropEntry, ptr %25, i32 0, i32 0
  store i16 %24, ptr %26, align 4, !tbaa !55
  %27 = load i16, ptr %7, align 2, !tbaa !44
  %28 = load ptr, ptr %10, align 8, !tbaa !47
  %29 = getelementptr inbounds nuw %struct.BPropEntry, ptr %28, i32 0, i32 1
  store i16 %27, ptr %29, align 2, !tbaa !49
  %30 = load i32, ptr %8, align 4, !tbaa !38
  %31 = load ptr, ptr %10, align 8, !tbaa !47
  %32 = getelementptr inbounds nuw %struct.BPropEntry, ptr %31, i32 0, i32 2
  store i32 %30, ptr %32, align 4, !tbaa !56
  call void @llvm.lifetime.end.p0(i64 8, ptr %10) #5
  call void @llvm.lifetime.end.p0(i64 4, ptr %9) #5
  ret void
}

; Function Attrs: alwaysinline nounwind uwtable
define internal void @lj_ir_set_(ptr noundef %0, i16 noundef zeroext %1, i16 noundef zeroext %2, i16 noundef zeroext %3) #2 {
  %5 = alloca ptr, align 8
  %6 = alloca i16, align 2
  %7 = alloca i16, align 2
  %8 = alloca i16, align 2
  store ptr %0, ptr %5, align 8, !tbaa !4
  store i16 %1, ptr %6, align 2, !tbaa !44
  store i16 %2, ptr %7, align 2, !tbaa !44
  store i16 %3, ptr %8, align 2, !tbaa !44
  %9 = load i16, ptr %6, align 2, !tbaa !44
  %10 = load ptr, ptr %5, align 8, !tbaa !4
  %11 = getelementptr inbounds nuw %struct.jit_State, ptr %10, i32 0, i32 14
  %12 = getelementptr inbounds nuw %struct.FoldState, ptr %11, i32 0, i32 0
  %13 = getelementptr inbounds nuw %struct.anon, ptr %12, i32 0, i32 2
  store i16 %9, ptr %13, align 4, !tbaa !33
  %14 = load i16, ptr %7, align 2, !tbaa !44
  %15 = load ptr, ptr %5, align 8, !tbaa !4
  %16 = getelementptr inbounds nuw %struct.jit_State, ptr %15, i32 0, i32 14
  %17 = getelementptr inbounds nuw %struct.FoldState, ptr %16, i32 0, i32 0
  %18 = getelementptr inbounds nuw %struct.anon, ptr %17, i32 0, i32 0
  store i16 %14, ptr %18, align 8, !tbaa !33
  %19 = load i16, ptr %8, align 2, !tbaa !44
  %20 = load ptr, ptr %5, align 8, !tbaa !4
  %21 = getelementptr inbounds nuw %struct.jit_State, ptr %20, i32 0, i32 14
  %22 = getelementptr inbounds nuw %struct.FoldState, ptr %21, i32 0, i32 0
  %23 = getelementptr inbounds nuw %struct.anon, ptr %22, i32 0, i32 1
  store i16 %19, ptr %23, align 2, !tbaa !33
  ret void
}

; Function Attrs: nounwind uwtable
define internal ptr @narrow_bpc_get(ptr noundef %0, i16 noundef zeroext %1, i32 noundef %2) #0 {
  %4 = alloca ptr, align 8
  %5 = alloca ptr, align 8
  %6 = alloca i16, align 2
  %7 = alloca i32, align 4
  %8 = alloca i64, align 8
  %9 = alloca ptr, align 8
  %10 = alloca i32, align 4
  store ptr %0, ptr %5, align 8, !tbaa !4
  store i16 %1, ptr %6, align 2, !tbaa !44
  store i32 %2, ptr %7, align 4, !tbaa !38
  call void @llvm.lifetime.start.p0(i64 8, ptr %8) #5
  store i64 0, ptr %8, align 8, !tbaa !43
  br label %11

11:                                               ; preds = %46, %3
  %12 = load i64, ptr %8, align 8, !tbaa !43
  %13 = icmp slt i64 %12, 16
  br i1 %13, label %14, label %49

14:                                               ; preds = %11
  call void @llvm.lifetime.start.p0(i64 8, ptr %9) #5
  %15 = load ptr, ptr %5, align 8, !tbaa !4
  %16 = getelementptr inbounds nuw %struct.jit_State, ptr %15, i32 0, i32 46
  %17 = load i64, ptr %8, align 8, !tbaa !43
  %18 = getelementptr inbounds [16 x %struct.BPropEntry], ptr %16, i64 0, i64 %17
  store ptr %18, ptr %9, align 8, !tbaa !47
  %19 = load ptr, ptr %9, align 8, !tbaa !47
  %20 = getelementptr inbounds nuw %struct.BPropEntry, ptr %19, i32 0, i32 0
  %21 = load i16, ptr %20, align 4, !tbaa !55
  %22 = zext i16 %21 to i32
  %23 = load i16, ptr %6, align 2, !tbaa !44
  %24 = zext i16 %23 to i32
  %25 = icmp eq i32 %22, %24
  br i1 %25, label %26, label %42

26:                                               ; preds = %14
  %27 = load ptr, ptr %9, align 8, !tbaa !47
  %28 = getelementptr inbounds nuw %struct.BPropEntry, ptr %27, i32 0, i32 2
  %29 = load i32, ptr %28, align 4, !tbaa !56
  %30 = load i32, ptr %7, align 4, !tbaa !38
  %31 = icmp uge i32 %29, %30
  br i1 %31, label %32, label %42

32:                                               ; preds = %26
  %33 = load ptr, ptr %9, align 8, !tbaa !47
  %34 = getelementptr inbounds nuw %struct.BPropEntry, ptr %33, i32 0, i32 2
  %35 = load i32, ptr %34, align 4, !tbaa !56
  %36 = load i32, ptr %7, align 4, !tbaa !38
  %37 = xor i32 %35, %36
  %38 = and i32 %37, 4095
  %39 = icmp eq i32 %38, 0
  br i1 %39, label %40, label %42

40:                                               ; preds = %32
  %41 = load ptr, ptr %9, align 8, !tbaa !47
  store ptr %41, ptr %4, align 8
  store i32 1, ptr %10, align 4
  br label %43

42:                                               ; preds = %32, %26, %14
  store i32 0, ptr %10, align 4
  br label %43

43:                                               ; preds = %42, %40
  call void @llvm.lifetime.end.p0(i64 8, ptr %9) #5
  %44 = load i32, ptr %10, align 4
  switch i32 %44, label %50 [
    i32 0, label %45
  ]

45:                                               ; preds = %43
  br label %46

46:                                               ; preds = %45
  %47 = load i64, ptr %8, align 8, !tbaa !43
  %48 = add nsw i64 %47, 1
  store i64 %48, ptr %8, align 8, !tbaa !43
  br label %11, !llvm.loop !57

49:                                               ; preds = %11
  store ptr null, ptr %4, align 8
  store i32 1, ptr %10, align 4
  br label %50

50:                                               ; preds = %49, %43
  call void @llvm.lifetime.end.p0(i64 8, ptr %8) #5
  %51 = load ptr, ptr %4, align 8
  ret ptr %51
}

; Function Attrs: nounwind uwtable
define internal i32 @narrow_stripov(ptr noundef %0, i32 noundef %1, i32 noundef %2, i32 noundef %3) #0 {
  %5 = alloca i32, align 4
  %6 = alloca ptr, align 8
  %7 = alloca i32, align 4
  %8 = alloca i32, align 4
  %9 = alloca i32, align 4
  %10 = alloca i32, align 4
  %11 = alloca ptr, align 8
  %12 = alloca i32, align 4
  %13 = alloca ptr, align 8
  %14 = alloca i32, align 4
  %15 = alloca i32, align 4
  %16 = alloca i32, align 4
  store ptr %0, ptr %6, align 8, !tbaa !4
  store i32 %1, ptr %7, align 4, !tbaa !38
  store i32 %2, ptr %8, align 4, !tbaa !38
  store i32 %3, ptr %9, align 4, !tbaa !38
  call void @llvm.lifetime.start.p0(i64 4, ptr %10) #5
  %17 = load i32, ptr %7, align 4, !tbaa !38
  %18 = trunc i32 %17 to i16
  %19 = zext i16 %18 to i32
  store i32 %19, ptr %10, align 4, !tbaa !38
  call void @llvm.lifetime.start.p0(i64 8, ptr %11) #5
  %20 = load ptr, ptr %6, align 8, !tbaa !4
  %21 = getelementptr inbounds nuw %struct.jit_State, ptr %20, i32 0, i32 0
  %22 = getelementptr inbounds nuw %struct.GCtrace, ptr %21, i32 0, i32 7
  %23 = load ptr, ptr %22, align 8, !tbaa !39
  %24 = load i32, ptr %10, align 4, !tbaa !38
  %25 = zext i32 %24 to i64
  %26 = getelementptr inbounds nuw %union.IRIns, ptr %23, i64 %25
  store ptr %26, ptr %11, align 8, !tbaa !40
  call void @llvm.lifetime.start.p0(i64 4, ptr %12) #5
  %27 = load ptr, ptr %11, align 8, !tbaa !40
  %28 = getelementptr inbounds nuw %struct.anon.0, ptr %27, i32 0, i32 2
  %29 = load i8, ptr %28, align 1, !tbaa !33
  %30 = zext i8 %29 to i32
  store i32 %30, ptr %12, align 4, !tbaa !38
  %31 = load i32, ptr %12, align 4, !tbaa !38
  %32 = icmp sge i32 %31, 53
  br i1 %32, label %33, label %110

33:                                               ; preds = %4
  %34 = load i32, ptr %12, align 4, !tbaa !38
  %35 = load i32, ptr %8, align 4, !tbaa !38
  %36 = icmp sle i32 %34, %35
  br i1 %36, label %37, label %110

37:                                               ; preds = %33
  call void @llvm.lifetime.start.p0(i64 8, ptr %13) #5
  %38 = load ptr, ptr %6, align 8, !tbaa !4
  %39 = load i32, ptr %10, align 4, !tbaa !38
  %40 = trunc i32 %39 to i16
  %41 = load i32, ptr %9, align 4, !tbaa !38
  %42 = call ptr @narrow_bpc_get(ptr noundef %38, i16 noundef zeroext %40, i32 noundef %41)
  store ptr %42, ptr %13, align 8, !tbaa !47
  %43 = load ptr, ptr %13, align 8, !tbaa !47
  %44 = icmp ne ptr %43, null
  br i1 %44, label %45, label %65

45:                                               ; preds = %37
  %46 = load ptr, ptr %13, align 8, !tbaa !47
  %47 = getelementptr inbounds nuw %struct.BPropEntry, ptr %46, i32 0, i32 1
  %48 = load i16, ptr %47, align 2, !tbaa !49
  %49 = zext i16 %48 to i32
  %50 = load ptr, ptr %6, align 8, !tbaa !4
  %51 = getelementptr inbounds nuw %struct.jit_State, ptr %50, i32 0, i32 0
  %52 = getelementptr inbounds nuw %struct.GCtrace, ptr %51, i32 0, i32 7
  %53 = load ptr, ptr %52, align 8, !tbaa !39
  %54 = load ptr, ptr %13, align 8, !tbaa !47
  %55 = getelementptr inbounds nuw %struct.BPropEntry, ptr %54, i32 0, i32 1
  %56 = load i16, ptr %55, align 2, !tbaa !49
  %57 = zext i16 %56 to i64
  %58 = getelementptr inbounds nuw %union.IRIns, ptr %53, i64 %57
  %59 = getelementptr inbounds nuw %struct.anon.0, ptr %58, i32 0, i32 1
  %60 = getelementptr inbounds nuw %struct.IRType1, ptr %59, i32 0, i32 0
  %61 = load i8, ptr %60, align 4, !tbaa !33
  %62 = zext i8 %61 to i32
  %63 = shl i32 %62, 24
  %64 = add i32 %49, %63
  store i32 %64, ptr %5, align 4
  store i32 1, ptr %14, align 4
  br label %107

65:                                               ; preds = %37
  call void @llvm.lifetime.start.p0(i64 4, ptr %15) #5
  %66 = load ptr, ptr %11, align 8, !tbaa !40
  %67 = getelementptr inbounds nuw %struct.anon, ptr %66, i32 0, i32 0
  %68 = load i16, ptr %67, align 8, !tbaa !33
  %69 = zext i16 %68 to i32
  store i32 %69, ptr %15, align 4, !tbaa !38
  call void @llvm.lifetime.start.p0(i64 4, ptr %16) #5
  %70 = load ptr, ptr %11, align 8, !tbaa !40
  %71 = getelementptr inbounds nuw %struct.anon, ptr %70, i32 0, i32 1
  %72 = load i16, ptr %71, align 2, !tbaa !33
  %73 = zext i16 %72 to i32
  store i32 %73, ptr %16, align 4, !tbaa !38
  %74 = load ptr, ptr %6, align 8, !tbaa !4
  %75 = load i32, ptr %15, align 4, !tbaa !38
  %76 = load i32, ptr %8, align 4, !tbaa !38
  %77 = load i32, ptr %9, align 4, !tbaa !38
  %78 = call i32 @narrow_stripov(ptr noundef %74, i32 noundef %75, i32 noundef %76, i32 noundef %77)
  store i32 %78, ptr %15, align 4, !tbaa !38
  %79 = load ptr, ptr %6, align 8, !tbaa !4
  %80 = load i32, ptr %16, align 4, !tbaa !38
  %81 = load i32, ptr %8, align 4, !tbaa !38
  %82 = load i32, ptr %9, align 4, !tbaa !38
  %83 = call i32 @narrow_stripov(ptr noundef %79, i32 noundef %80, i32 noundef %81, i32 noundef %82)
  store i32 %83, ptr %16, align 4, !tbaa !38
  %84 = load ptr, ptr %6, align 8, !tbaa !4
  %85 = load i32, ptr %12, align 4, !tbaa !38
  %86 = sub nsw i32 %85, 53
  %87 = add nsw i32 %86, 41
  %88 = shl i32 %87, 8
  %89 = load i32, ptr %9, align 4, !tbaa !38
  %90 = and i32 %89, 992
  %91 = lshr i32 %90, 5
  %92 = or i32 %88, %91
  %93 = trunc i32 %92 to i16
  %94 = load i32, ptr %15, align 4, !tbaa !38
  %95 = trunc i32 %94 to i16
  %96 = load i32, ptr %16, align 4, !tbaa !38
  %97 = trunc i32 %96 to i16
  call void @lj_ir_set_(ptr noundef %84, i16 noundef zeroext %93, i16 noundef zeroext %95, i16 noundef zeroext %97)
  %98 = load ptr, ptr %6, align 8, !tbaa !4
  %99 = call i32 @lj_opt_fold(ptr noundef %98)
  store i32 %99, ptr %7, align 4, !tbaa !38
  %100 = load ptr, ptr %6, align 8, !tbaa !4
  %101 = load i32, ptr %10, align 4, !tbaa !38
  %102 = trunc i32 %101 to i16
  %103 = load i32, ptr %7, align 4, !tbaa !38
  %104 = trunc i32 %103 to i16
  %105 = load i32, ptr %9, align 4, !tbaa !38
  call void @narrow_bpc_set(ptr noundef %100, i16 noundef zeroext %102, i16 noundef zeroext %104, i32 noundef %105)
  call void @llvm.lifetime.end.p0(i64 4, ptr %16) #5
  call void @llvm.lifetime.end.p0(i64 4, ptr %15) #5
  br label %106

106:                                              ; preds = %65
  store i32 0, ptr %14, align 4
  br label %107

107:                                              ; preds = %106, %45
  call void @llvm.lifetime.end.p0(i64 8, ptr %13) #5
  %108 = load i32, ptr %14, align 4
  switch i32 %108, label %135 [
    i32 0, label %109
  ]

109:                                              ; preds = %107
  br label %133

110:                                              ; preds = %33, %4
  %111 = load i32, ptr %9, align 4, !tbaa !38
  %112 = and i32 %111, 2048
  %113 = icmp ne i32 %112, 0
  br i1 %113, label %114, label %132

114:                                              ; preds = %110
  %115 = load ptr, ptr %11, align 8, !tbaa !40
  %116 = getelementptr inbounds nuw %struct.anon.0, ptr %115, i32 0, i32 1
  %117 = getelementptr inbounds nuw %struct.IRType1, ptr %116, i32 0, i32 0
  %118 = load i8, ptr %117, align 4, !tbaa !33
  %119 = zext i8 %118 to i32
  %120 = and i32 %119, 31
  %121 = lshr i32 6315993, %120
  %122 = and i32 %121, 1
  %123 = icmp ne i32 %122, 0
  br i1 %123, label %132, label %124

124:                                              ; preds = %114
  %125 = load ptr, ptr %6, align 8, !tbaa !4
  %126 = load i32, ptr %7, align 4, !tbaa !38
  %127 = trunc i32 %126 to i16
  %128 = load i32, ptr %9, align 4, !tbaa !38
  %129 = trunc i32 %128 to i16
  call void @lj_ir_set_(ptr noundef %125, i16 noundef zeroext 23317, i16 noundef zeroext %127, i16 noundef zeroext %129)
  %130 = load ptr, ptr %6, align 8, !tbaa !4
  %131 = call i32 @lj_opt_fold(ptr noundef %130)
  store i32 %131, ptr %7, align 4, !tbaa !38
  br label %132

132:                                              ; preds = %124, %114, %110
  br label %133

133:                                              ; preds = %132, %109
  %134 = load i32, ptr %7, align 4, !tbaa !38
  store i32 %134, ptr %5, align 4
  store i32 1, ptr %14, align 4
  br label %135

135:                                              ; preds = %133, %107
  call void @llvm.lifetime.end.p0(i64 4, ptr %12) #5
  call void @llvm.lifetime.end.p0(i64 8, ptr %11) #5
  call void @llvm.lifetime.end.p0(i64 4, ptr %10) #5
  %136 = load i32, ptr %5, align 4
  ret i32 %136
}