; Function Attrs: nounwind uwtable
define internal fastcc i32 @narrow_stripov(ptr noundef %0, i32 noundef %1, i32 noundef range(i32 54, 56) %2, i32 noundef range(i32 627, 2740) %3) unnamed_addr #0 {
  %5 = trunc i32 %1 to i16
  %6 = and i32 %1, 65535
  %7 = getelementptr inbounds nuw i8, ptr %0, i64 32
  %8 = load ptr, ptr %7, align 8, !tbaa !36
  %9 = zext nneg i32 %6 to i64
  %10 = getelementptr inbounds nuw %union.IRIns, ptr %8, i64 %9
  %11 = getelementptr inbounds nuw i8, ptr %10, i64 5
  %12 = load i8, ptr %11, align 1, !tbaa !32
  %13 = zext i8 %12 to i32
  %14 = icmp ult i8 %12, 53
  %.not = icmp samesign ult i32 %2, %13
  %or.cond = select i1 %14, i1 true, i1 %.not
  br i1 %or.cond, label %67, label %15

15:                                               ; preds = %4
  %16 = getelementptr inbounds nuw i8, ptr %0, i64 2852
  br label %17

17:                                               ; preds = %25, %15
  %.01319.i = phi i64 [ 0, %15 ], [ %26, %25 ]
  %18 = getelementptr inbounds nuw [16 x %struct.BPropEntry], ptr %16, i64 0, i64 %.01319.i
  %19 = load i16, ptr %18, align 4, !tbaa !38
  %20 = icmp eq i16 %19, %5
  br i1 %20, label %21, label %25

21:                                               ; preds = %17
  %22 = getelementptr inbounds nuw i8, ptr %18, i64 4
  %23 = load i32, ptr %22, align 4, !tbaa !41
  %.masked = and i32 %23, 4095
  %24 = icmp eq i32 %.masked, %3
  br i1 %24, label %27, label %25

25:                                               ; preds = %21, %17
  %26 = add nuw nsw i64 %.01319.i, 1
  %exitcond.not.i = icmp eq i64 %26, 16
  br i1 %exitcond.not.i, label %38, label %17, !llvm.loop !45

27:                                               ; preds = %21
  %28 = getelementptr inbounds nuw i8, ptr %18, i64 2
  %29 = load i16, ptr %28, align 2, !tbaa !40
  %30 = zext i16 %29 to i32
  %31 = zext i16 %29 to i64
  %32 = getelementptr inbounds nuw %union.IRIns, ptr %8, i64 %31
  %33 = getelementptr inbounds nuw i8, ptr %32, i64 4
  %34 = load i8, ptr %33, align 4, !tbaa !32
  %35 = zext i8 %34 to i32
  %36 = shl nuw i32 %35, 24
  %37 = or disjoint i32 %36, %30
  br label %common.ret66

common.ret66:                                     ; preds = %27, %75, %68, %67, %38
  %common.ret66.op = phi i32 [ %57, %38 ], [ %1, %68 ], [ %80, %75 ], [ %1, %67 ], [ %37, %27 ]
  ret i32 %common.ret66.op

38:                                               ; preds = %25
  %39 = load i16, ptr %10, align 8, !tbaa !32
  %40 = zext i16 %39 to i32
  %41 = getelementptr inbounds nuw i8, ptr %10, i64 2
  %42 = load i16, ptr %41, align 2, !tbaa !32
  %43 = zext i16 %42 to i32
  %44 = tail call fastcc i32 @narrow_stripov(ptr noundef nonnull %0, i32 noundef %40, i32 noundef %2, i32 noundef %3)
  %45 = tail call fastcc i32 @narrow_stripov(ptr noundef nonnull %0, i32 noundef %43, i32 noundef %2, i32 noundef %3)
  %46 = shl nuw nsw i32 %13, 8
  %47 = add nuw nsw i32 %46, 62464
  %48 = lshr i32 %3, 5
  %49 = and i32 %48, 31
  %50 = or disjoint i32 %47, %49
  %51 = trunc i32 %50 to i16
  %52 = trunc i32 %44 to i16
  %53 = trunc i32 %45 to i16
  %54 = getelementptr inbounds nuw i8, ptr %0, i64 184
  %55 = getelementptr inbounds nuw i8, ptr %0, i64 188
  store i16 %51, ptr %55, align 4, !tbaa !32
  store i16 %52, ptr %54, align 8, !tbaa !32
  %56 = getelementptr inbounds nuw i8, ptr %0, i64 186
  store i16 %53, ptr %56, align 2, !tbaa !32
  %57 = tail call i32 @lj_opt_fold(ptr noundef nonnull %0) #6
  %58 = trunc i32 %57 to i16
  %59 = getelementptr inbounds nuw i8, ptr %0, i64 2980
  %60 = load i32, ptr %59, align 4, !tbaa !37
  %61 = zext i32 %60 to i64
  %62 = getelementptr inbounds nuw [16 x %struct.BPropEntry], ptr %16, i64 0, i64 %61
  %63 = add i32 %60, 1
  %64 = and i32 %63, 15
  store i32 %64, ptr %59, align 4, !tbaa !37
  store i16 %5, ptr %62, align 4, !tbaa !38
  %65 = getelementptr inbounds nuw i8, ptr %62, i64 2
  store i16 %58, ptr %65, align 2, !tbaa !40
  %66 = getelementptr inbounds nuw i8, ptr %62, i64 4
  store i32 %3, ptr %66, align 4, !tbaa !41
  br label %common.ret66

67:                                               ; preds = %4
  %.not48 = icmp samesign ult i32 %3, 2048
  br i1 %.not48, label %common.ret66, label %68

68:                                               ; preds = %67
  %69 = getelementptr inbounds nuw i8, ptr %10, i64 4
  %70 = load i8, ptr %69, align 4, !tbaa !32
  %71 = and i8 %70, 31
  %72 = zext nneg i8 %71 to i32
  %73 = shl nuw i32 1, %72
  %74 = and i32 %73, 6315993
  %.not49 = icmp eq i32 %74, 0
  br i1 %.not49, label %75, label %common.ret66

75:                                               ; preds = %68
  %76 = trunc nuw nsw i32 %3 to i16
  %77 = getelementptr inbounds nuw i8, ptr %0, i64 184
  %78 = getelementptr inbounds nuw i8, ptr %0, i64 188
  store i16 23317, ptr %78, align 4, !tbaa !32
  store i16 %5, ptr %77, align 8, !tbaa !32
  %79 = getelementptr inbounds nuw i8, ptr %0, i64 186
  store i16 %76, ptr %79, align 2, !tbaa !32
  %80 = tail call i32 @lj_opt_fold(ptr noundef nonnull %0) #6
  br label %common.ret66
}